; Function Attrs: nounwind uwtable
define void @test_fail_message_prefix(ptr noundef %0, ptr noundef %1, i32 noundef %2, ptr noundef %3, ptr noundef %4, ptr noundef %5, ptr noundef %6) local_unnamed_addr #0 {
  %.not = icmp eq ptr %0, null
  %8 = select i1 %.not, ptr @.str.1, ptr %0
  %9 = tail call i32 (ptr, ...) @test_printf_stderr(ptr noundef nonnull @.str, ptr noundef nonnull %8) #8
  %.not18 = icmp eq ptr %3, null
  br i1 %.not18, label %12, label %10

10:                                               ; preds = %7
  %11 = tail call i32 (ptr, ...) @test_printf_stderr(ptr noundef nonnull @.str.2, ptr noundef nonnull %3) #8
  br label %12

12:                                               ; preds = %10, %7
  %.not19 = icmp eq ptr %6, null
  br i1 %.not19, label %20, label %13

13:                                               ; preds = %12
  %14 = icmp ne ptr %4, null
  %15 = icmp ne ptr %5, null
  %or.cond = and i1 %14, %15
  br i1 %or.cond, label %16, label %18

16:                                               ; preds = %13
  %17 = tail call i32 (ptr, ...) @test_printf_stderr(ptr noundef nonnull @.str.3, ptr noundef nonnull %4, ptr noundef nonnull %6, ptr noundef nonnull %5) #8
  br label %20

18:                                               ; preds = %13
  %19 = tail call i32 (ptr, ...) @test_printf_stderr(ptr noundef nonnull @.str.4, ptr noundef nonnull %6) #8
  br label %20

20:                                               ; preds = %16, %18, %12
  %.not20 = icmp eq ptr %1, null
  br i1 %.not20, label %23, label %21

21:                                               ; preds = %20
  %22 = tail call i32 (ptr, ...) @test_printf_stderr(ptr noundef nonnull @.str.5, ptr noundef nonnull %1, i32 noundef %2) #8
  br label %23

23:                                               ; preds = %21, %20
  %24 = tail call i32 (ptr, ...) @test_printf_stderr(ptr noundef nonnull @.str.6) #8
  ret void
}